; Function Attrs: mustprogress uwtable
define hidden noundef zeroext i1 @_ZN4cvc58internal6theory11quantifiers15EntailmentCheck10isEntailedENS0_12NodeTemplateILb0EEEb(ptr noundef nonnull readonly align 8 captures(none) dereferenceable(48) %0, ptr noundef readonly captures(none) %1, i1 noundef zeroext %2) local_unnamed_addr #3 align 2 personality ptr @__gxx_personality_v0 {
  %4 = alloca %"class.std::map.487", align 8
  %5 = alloca %"class.cvc5::internal::NodeTemplate.475", align 8
  call void @llvm.lifetime.start.p0(i64 48, ptr nonnull %4) #20
  %6 = getelementptr inbounds nuw i8, ptr %4, i64 8
  store i32 0, ptr %6, align 8, !tbaa !127
  %7 = getelementptr inbounds nuw i8, ptr %4, i64 16
  store ptr null, ptr %7, align 8, !tbaa !21
  %8 = getelementptr inbounds nuw i8, ptr %4, i64 24
  store ptr %6, ptr %8, align 8, !tbaa !128
  %9 = getelementptr inbounds nuw i8, ptr %4, i64 32
  store ptr %6, ptr %9, align 8, !tbaa !129
  %10 = getelementptr inbounds nuw i8, ptr %4, i64 40
  store i64 0, ptr %10, align 8, !tbaa !130
  %11 = load ptr, ptr %1, align 8, !tbaa !27
  store ptr %11, ptr %5, align 8, !tbaa !27
  %12 = invoke noundef zeroext i1 @_ZN4cvc58internal6theory11quantifiers15EntailmentCheck11isEntailed2ENS0_12NodeTemplateILb0EEERSt3mapIS5_S5_St4lessIS5_ESaISt4pairIKS5_S5_EEEbb(ptr noundef nonnull align 8 dereferenceable(48) %0, ptr noundef nonnull %5, ptr noundef nonnull align 8 dereferenceable(48) %4, i1 noundef zeroext false, i1 noundef zeroext %2)
          to label %13 unwind label %18

13:                                               ; preds = %3
  %14 = load ptr, ptr %7, align 8, !tbaa !21
  invoke void @_ZNSt8_Rb_treeIN4cvc58internal12NodeTemplateILb0EEESt4pairIKS3_S3_ESt10_Select1stIS6_ESt4lessIS3_ESaIS6_EE8_M_eraseEPSt13_Rb_tree_nodeIS6_E(ptr noundef nonnull align 8 dereferenceable(48) %4, ptr noundef %14)
          to label %_ZNSt3mapIN4cvc58internal12NodeTemplateILb0EEES3_St4lessIS3_ESaISt4pairIKS3_S3_EEED2Ev.exit unwind label %15

15:                                               ; preds = %13
  %16 = landingpad { ptr, i32 }
          catch ptr null
  %17 = extractvalue { ptr, i32 } %16, 0
  call void @__clang_call_terminate(ptr %17) #22
  unreachable

_ZNSt3mapIN4cvc58internal12NodeTemplateILb0EEES3_St4lessIS3_ESaISt4pairIKS3_S3_EEED2Ev.exit: ; preds = %13
  call void @llvm.lifetime.end.p0(i64 48, ptr nonnull %4) #20
  ret i1 %12

18:                                               ; preds = %3
  %19 = landingpad { ptr, i32 }
          cleanup
  call void @_ZNSt3mapIN4cvc58internal12NodeTemplateILb0EEES3_St4lessIS3_ESaISt4pairIKS3_S3_EEED2Ev(ptr noundef nonnull align 8 dereferenceable(48) %4) #20
  call void @llvm.lifetime.end.p0(i64 48, ptr nonnull %4) #20
  resume { ptr, i32 } %19
}